target datalayout = "e-m:e-p270:32:32-p271:32:32-p272:64:64-i64:64-i128:128-f80:128-n8:16:32:64-S128"
target triple = "x86_64-pc-linux-gnu"

%struct.ExprEvalStep = type { i64, ptr, ptr, %union.anon }
%union.anon = type { %struct.anon.23 }
%struct.anon.23 = type { ptr, ptr, i32, i32, ptr, ptr }
%struct.ArrayType = type { i32, i32, i32, i32 }
%struct.anon.19 = type { ptr, i32, ptr }

; Function Attrs: inlinehint nounwind uwtable
define internal i64 @PointerGetDatum(ptr noundef %0) #2 {
  %2 = alloca ptr, align 8
  store ptr %0, ptr %2, align 8
  %3 = load ptr, ptr %2, align 8
  %4 = ptrtoint ptr %3 to i64
  ret i64 %4
}

; Function Attrs: inlinehint nounwind uwtable
define internal ptr @DatumGetPointer(i64 noundef %0) #2 {
  %2 = alloca i64, align 8
  store i64 %0, ptr %2, align 8
  %3 = load i64, ptr %2, align 8
  %4 = inttoptr i64 %3 to ptr
  ret ptr %4
}

; Function Attrs: nounwind uwtable
define dso_local void @ExecEvalArrayCoerce(ptr noundef %0, ptr noundef %1, ptr noundef %2) #0 {
  %4 = alloca ptr, align 8
  %5 = alloca ptr, align 8
  %6 = alloca ptr, align 8
  %7 = alloca i64, align 8
  %8 = alloca i32, align 4
  %9 = alloca ptr, align 8
  store ptr %0, ptr %4, align 8
  store ptr %1, ptr %5, align 8
  store ptr %2, ptr %6, align 8
  call void @llvm.lifetime.start.p0(i64 8, ptr %7) #11
  %10 = load ptr, ptr %5, align 8
  %11 = getelementptr inbounds nuw %struct.ExprEvalStep, ptr %10, i32 0, i32 2
  %12 = load ptr, ptr %11, align 8
  %13 = load i8, ptr %12, align 1, !range !7, !noundef !8
  %14 = trunc i8 %13 to i1
  br i1 %14, label %15, label %16

15:                                               ; preds = %3
  store i32 1, ptr %8, align 4
  br label %60

16:                                               ; preds = %3
  %17 = load ptr, ptr %5, align 8
  %18 = getelementptr inbounds nuw %struct.ExprEvalStep, ptr %17, i32 0, i32 1
  %19 = load ptr, ptr %18, align 8
  %20 = load i64, ptr %19, align 8
  store i64 %20, ptr %7, align 8
  %21 = load ptr, ptr %5, align 8
  %22 = getelementptr inbounds nuw %struct.ExprEvalStep, ptr %21, i32 0, i32 3
  %23 = getelementptr inbounds nuw %struct.anon.19, ptr %22, i32 0, i32 0
  %24 = load ptr, ptr %23, align 8
  %25 = icmp eq ptr %24, null
  br i1 %25, label %26, label %41

26:                                               ; preds = %16
  call void @llvm.lifetime.start.p0(i64 8, ptr %9) #11
  %27 = load i64, ptr %7, align 8
  %28 = call ptr @DatumGetPointer(i64 noundef %27)
  %29 = call ptr @pg_detoast_datum_copy(ptr noundef %28)
  store ptr %29, ptr %9, align 8
  %30 = load ptr, ptr %5, align 8
  %31 = getelementptr inbounds nuw %struct.ExprEvalStep, ptr %30, i32 0, i32 3
  %32 = getelementptr inbounds nuw %struct.anon.19, ptr %31, i32 0, i32 1
  %33 = load i32, ptr %32, align 8
  %34 = load ptr, ptr %9, align 8
  %35 = getelementptr inbounds nuw %struct.ArrayType, ptr %34, i32 0, i32 3
  store i32 %33, ptr %35, align 4
  %36 = load ptr, ptr %9, align 8
  %37 = call i64 @PointerGetDatum(ptr noundef %36)
  %38 = load ptr, ptr %5, align 8
  %39 = getelementptr inbounds nuw %struct.ExprEvalStep, ptr %38, i32 0, i32 1
  %40 = load ptr, ptr %39, align 8
  store i64 %37, ptr %40, align 8
  store i32 1, ptr %8, align 4
  call void @llvm.lifetime.end.p0(i64 8, ptr %9) #11
  br label %60

41:                                               ; preds = %16
  %42 = load i64, ptr %7, align 8
  %43 = load ptr, ptr %5, align 8
  %44 = getelementptr inbounds nuw %struct.ExprEvalStep, ptr %43, i32 0, i32 3
  %45 = getelementptr inbounds nuw %struct.anon.19, ptr %44, i32 0, i32 0
  %46 = load ptr, ptr %45, align 8
  %47 = load ptr, ptr %6, align 8
  %48 = load ptr, ptr %5, align 8
  %49 = getelementptr inbounds nuw %struct.ExprEvalStep, ptr %48, i32 0, i32 3
  %50 = getelementptr inbounds nuw %struct.anon.19, ptr %49, i32 0, i32 1
  %51 = load i32, ptr %50, align 8
  %52 = load ptr, ptr %5, align 8
  %53 = getelementptr inbounds nuw %struct.ExprEvalStep, ptr %52, i32 0, i32 3
  %54 = getelementptr inbounds nuw %struct.anon.19, ptr %53, i32 0, i32 2
  %55 = load ptr, ptr %54, align 8
  %56 = call i64 @array_map(i64 noundef %42, ptr noundef %46, ptr noundef %47, i32 noundef %51, ptr noundef %55)
  %57 = load ptr, ptr %5, align 8
  %58 = getelementptr inbounds nuw %struct.ExprEvalStep, ptr %57, i32 0, i32 1
  %59 = load ptr, ptr %58, align 8
  store i64 %56, ptr %59, align 8
  store i32 0, ptr %8, align 4
  br label %60

60:                                               ; preds = %41, %26, %15
  call void @llvm.lifetime.end.p0(i64 8, ptr %7) #11
  %61 = load i32, ptr %8, align 4
  switch i32 %61, label %63 [
    i32 0, label %62
    i32 1, label %62
  ]

62:                                               ; preds = %60, %60
  ret void

63:                                               ; preds = %60
  unreachable
}