; Function Attrs: nounwind uwtable
define dso_local void @ExecEvalArrayCoerce(ptr noundef readnone captures(none) %0, ptr noundef readonly captures(none) %1, ptr noundef %2) local_unnamed_addr #0 {
  %4 = getelementptr inbounds nuw i8, ptr %1, i64 16
  %5 = load ptr, ptr %4, align 8
  %6 = load i8, ptr %5, align 1, !range !8, !noundef !9
  %7 = trunc nuw i8 %6 to i1
  br i1 %7, label %29, label %8

8:                                                ; preds = %3
  %9 = getelementptr inbounds nuw i8, ptr %1, i64 8
  %10 = load ptr, ptr %9, align 8
  %11 = load i64, ptr %10, align 8
  %12 = getelementptr inbounds nuw i8, ptr %1, i64 24
  %13 = load ptr, ptr %12, align 8
  %14 = icmp eq ptr %13, null
  br i1 %14, label %15, label %22

15:                                               ; preds = %8
  %16 = inttoptr i64 %11 to ptr
  %17 = tail call ptr @pg_detoast_datum_copy(ptr noundef %16) #18
  %18 = getelementptr inbounds nuw i8, ptr %1, i64 32
  %19 = load i32, ptr %18, align 8
  %20 = getelementptr inbounds nuw i8, ptr %17, i64 12
  store i32 %19, ptr %20, align 4
  %21 = ptrtoint ptr %17 to i64
  br label %.sink.split

22:                                               ; preds = %8
  %23 = getelementptr inbounds nuw i8, ptr %1, i64 32
  %24 = load i32, ptr %23, align 8
  %25 = getelementptr inbounds nuw i8, ptr %1, i64 40
  %26 = load ptr, ptr %25, align 8
  %27 = tail call i64 @array_map(i64 noundef %11, ptr noundef nonnull %13, ptr noundef %2, i32 noundef %24, ptr noundef %26) #18
  br label %.sink.split

.sink.split:                                      ; preds = %15, %22
  %.sink = phi i64 [ %27, %22 ], [ %21, %15 ]
  %28 = load ptr, ptr %9, align 8
  store i64 %.sink, ptr %28, align 8
  br label %29

29:                                               ; preds = %.sink.split, %3
  ret void
}